target datalayout = "e-m:e-p270:32:32-p271:32:32-p272:64:64-i64:64-i128:128-f80:128-n8:16:32:64-S128"
target triple = "x86_64-pc-linux-gnu"

%struct.UDataInfo = type { i16, i16, i8, i8, i8, i8, [4 x i8], [4 x i8], [4 x i8] }
%struct.UDataSwapper = type { i8, i8, i8, i8, ptr, ptr, ptr, ptr, ptr, ptr, ptr, ptr, ptr, ptr, ptr }

@.str.18 = private unnamed_addr constant [113 x i8] c"uemoji_swap(): data format %02x.%02x.%02x.%02x (format version %02x) is not recognized as emoji properties data\0A\00", align 1
@.str.19 = private unnamed_addr constant [74 x i8] c"uemoji_swap(): too few bytes (%d after header) for emoji properties data\0A\00", align 1
@.str.20 = private unnamed_addr constant [63 x i8] c"uemoji_swap(): too few indexes (%d) for emoji properties data\0A\00", align 1
@.str.21 = private unnamed_addr constant [81 x i8] c"uemoji_swap(): too few bytes (%d after header) for all of emoji properties data\0A\00", align 1

; Function Attrs: inlinehint mustprogress nounwind uwtable
define internal noundef signext i8 @_ZL9U_FAILURE10UErrorCode(i32 noundef %0) #2 {
  %2 = alloca i32, align 4
  store i32 %0, ptr %2, align 4, !tbaa !11
  %3 = load i32, ptr %2, align 4, !tbaa !11
  %4 = icmp sgt i32 %3, 0
  %5 = zext i1 %4 to i8
  ret i8 %5
}

; Function Attrs: mustprogress uwtable
define internal noundef i32 @_ZL11uemoji_swapPK12UDataSwapperPKviPvP10UErrorCode(ptr noundef %0, ptr noundef %1, i32 noundef %2, ptr noundef %3, ptr noundef %4) #0 {
  %6 = alloca i32, align 4
  %7 = alloca ptr, align 8
  %8 = alloca ptr, align 8
  %9 = alloca i32, align 4
  %10 = alloca ptr, align 8
  %11 = alloca ptr, align 8
  %12 = alloca i32, align 4
  %13 = alloca i32, align 4
  %14 = alloca ptr, align 8
  %15 = alloca ptr, align 8
  %16 = alloca ptr, align 8
  %17 = alloca ptr, align 8
  %18 = alloca i32, align 4
  %19 = alloca i32, align 4
  %20 = alloca [14 x i32], align 16
  %21 = alloca i32, align 4
  %22 = alloca i32, align 4
  %23 = alloca i32, align 4
  %24 = alloca i32, align 4
  %25 = alloca i32, align 4
  store ptr %0, ptr %7, align 8, !tbaa !3
  store ptr %1, ptr %8, align 8, !tbaa !8
  store i32 %2, ptr %9, align 4, !tbaa !9
  store ptr %3, ptr %10, align 8, !tbaa !8
  store ptr %4, ptr %11, align 8, !tbaa !8
  call void @llvm.lifetime.start.p0(i64 4, ptr %12) #6
  %26 = load ptr, ptr %7, align 8, !tbaa !3
  %27 = load ptr, ptr %8, align 8, !tbaa !8
  %28 = load i32, ptr %9, align 4, !tbaa !9
  %29 = load ptr, ptr %10, align 8, !tbaa !8
  %30 = load ptr, ptr %11, align 8, !tbaa !8
  %31 = call i32 @udata_swapDataHeader_77(ptr noundef %26, ptr noundef %27, i32 noundef %28, ptr noundef %29, ptr noundef %30)
  store i32 %31, ptr %12, align 4, !tbaa !9
  %32 = load ptr, ptr %11, align 8, !tbaa !8
  %33 = icmp eq ptr %32, null
  br i1 %33, label %39, label %34

34:                                               ; preds = %5
  %35 = load ptr, ptr %11, align 8, !tbaa !8
  %36 = load i32, ptr %35, align 4, !tbaa !11
  %37 = call noundef signext i8 @_ZL9U_FAILURE10UErrorCode(i32 noundef %36)
  %38 = icmp ne i8 %37, 0
  br i1 %38, label %39, label %40

39:                                               ; preds = %34, %5
  store i32 0, ptr %6, align 4
  store i32 1, ptr %13, align 4
  br label %254

40:                                               ; preds = %34
  call void @llvm.lifetime.start.p0(i64 8, ptr %14) #6
  %41 = load ptr, ptr %8, align 8, !tbaa !8
  %42 = getelementptr inbounds i8, ptr %41, i64 4
  store ptr %42, ptr %14, align 8, !tbaa !8
  %43 = load ptr, ptr %14, align 8, !tbaa !8
  %44 = getelementptr inbounds nuw %struct.UDataInfo, ptr %43, i32 0, i32 6
  %45 = getelementptr inbounds [4 x i8], ptr %44, i64 0, i64 0
  %46 = load i8, ptr %45, align 2, !tbaa !13
  %47 = zext i8 %46 to i32
  %48 = icmp eq i32 %47, 69
  br i1 %48, label %49, label %77

49:                                               ; preds = %40
  %50 = load ptr, ptr %14, align 8, !tbaa !8
  %51 = getelementptr inbounds nuw %struct.UDataInfo, ptr %50, i32 0, i32 6
  %52 = getelementptr inbounds [4 x i8], ptr %51, i64 0, i64 1
  %53 = load i8, ptr %52, align 1, !tbaa !13
  %54 = zext i8 %53 to i32
  %55 = icmp eq i32 %54, 109
  br i1 %55, label %56, label %77

56:                                               ; preds = %49
  %57 = load ptr, ptr %14, align 8, !tbaa !8
  %58 = getelementptr inbounds nuw %struct.UDataInfo, ptr %57, i32 0, i32 6
  %59 = getelementptr inbounds [4 x i8], ptr %58, i64 0, i64 2
  %60 = load i8, ptr %59, align 2, !tbaa !13
  %61 = zext i8 %60 to i32
  %62 = icmp eq i32 %61, 111
  br i1 %62, label %63, label %77

63:                                               ; preds = %56
  %64 = load ptr, ptr %14, align 8, !tbaa !8
  %65 = getelementptr inbounds nuw %struct.UDataInfo, ptr %64, i32 0, i32 6
  %66 = getelementptr inbounds [4 x i8], ptr %65, i64 0, i64 3
  %67 = load i8, ptr %66, align 1, !tbaa !13
  %68 = zext i8 %67 to i32
  %69 = icmp eq i32 %68, 106
  br i1 %69, label %70, label %77

70:                                               ; preds = %63
  %71 = load ptr, ptr %14, align 8, !tbaa !8
  %72 = getelementptr inbounds nuw %struct.UDataInfo, ptr %71, i32 0, i32 7
  %73 = getelementptr inbounds [4 x i8], ptr %72, i64 0, i64 0
  %74 = load i8, ptr %73, align 2, !tbaa !13
  %75 = zext i8 %74 to i32
  %76 = icmp eq i32 %75, 1
  br i1 %76, label %105, label %77

77:                                               ; preds = %70, %63, %56, %49, %40
  %78 = load ptr, ptr %7, align 8, !tbaa !3
  %79 = load ptr, ptr %14, align 8, !tbaa !8
  %80 = getelementptr inbounds nuw %struct.UDataInfo, ptr %79, i32 0, i32 6
  %81 = getelementptr inbounds [4 x i8], ptr %80, i64 0, i64 0
  %82 = load i8, ptr %81, align 2, !tbaa !13
  %83 = zext i8 %82 to i32
  %84 = load ptr, ptr %14, align 8, !tbaa !8
  %85 = getelementptr inbounds nuw %struct.UDataInfo, ptr %84, i32 0, i32 6
  %86 = getelementptr inbounds [4 x i8], ptr %85, i64 0, i64 1
  %87 = load i8, ptr %86, align 1, !tbaa !13
  %88 = zext i8 %87 to i32
  %89 = load ptr, ptr %14, align 8, !tbaa !8
  %90 = getelementptr inbounds nuw %struct.UDataInfo, ptr %89, i32 0, i32 6
  %91 = getelementptr inbounds [4 x i8], ptr %90, i64 0, i64 2
  %92 = load i8, ptr %91, align 2, !tbaa !13
  %93 = zext i8 %92 to i32
  %94 = load ptr, ptr %14, align 8, !tbaa !8
  %95 = getelementptr inbounds nuw %struct.UDataInfo, ptr %94, i32 0, i32 6
  %96 = getelementptr inbounds [4 x i8], ptr %95, i64 0, i64 3
  %97 = load i8, ptr %96, align 1, !tbaa !13
  %98 = zext i8 %97 to i32
  %99 = load ptr, ptr %14, align 8, !tbaa !8
  %100 = getelementptr inbounds nuw %struct.UDataInfo, ptr %99, i32 0, i32 7
  %101 = getelementptr inbounds [4 x i8], ptr %100, i64 0, i64 0
  %102 = load i8, ptr %101, align 2, !tbaa !13
  %103 = zext i8 %102 to i32
  call void (ptr, ptr, ...) @udata_printError_77(ptr noundef %78, ptr noundef @.str.18, i32 noundef %83, i32 noundef %88, i32 noundef %93, i32 noundef %98, i32 noundef %103)
  %104 = load ptr, ptr %11, align 8, !tbaa !8
  store i32 16, ptr %104, align 4, !tbaa !11
  store i32 0, ptr %6, align 4
  store i32 1, ptr %13, align 4
  br label %253

105:                                              ; preds = %70
  call void @llvm.lifetime.start.p0(i64 8, ptr %15) #6
  %106 = load ptr, ptr %8, align 8, !tbaa !8
  %107 = load i32, ptr %12, align 4, !tbaa !9
  %108 = sext i32 %107 to i64
  %109 = getelementptr inbounds i8, ptr %106, i64 %108
  store ptr %109, ptr %15, align 8, !tbaa !27
  call void @llvm.lifetime.start.p0(i64 8, ptr %16) #6
  %110 = load ptr, ptr %10, align 8, !tbaa !8
  %111 = load i32, ptr %12, align 4, !tbaa !9
  %112 = sext i32 %111 to i64
  %113 = getelementptr inbounds i8, ptr %110, i64 %112
  store ptr %113, ptr %16, align 8, !tbaa !27
  call void @llvm.lifetime.start.p0(i64 8, ptr %17) #6
  %114 = load ptr, ptr %15, align 8, !tbaa !27
  store ptr %114, ptr %17, align 8, !tbaa !20
  %115 = load i32, ptr %9, align 4, !tbaa !9
  %116 = icmp sge i32 %115, 0
  br i1 %116, label %117, label %128

117:                                              ; preds = %105
  %118 = load i32, ptr %12, align 4, !tbaa !9
  %119 = load i32, ptr %9, align 4, !tbaa !9
  %120 = sub nsw i32 %119, %118
  store i32 %120, ptr %9, align 4, !tbaa !9
  %121 = load i32, ptr %9, align 4, !tbaa !9
  %122 = icmp slt i32 %121, 56
  br i1 %122, label %123, label %127

123:                                              ; preds = %117
  %124 = load ptr, ptr %7, align 8, !tbaa !3
  %125 = load i32, ptr %9, align 4, !tbaa !9
  call void (ptr, ptr, ...) @udata_printError_77(ptr noundef %124, ptr noundef @.str.19, i32 noundef %125)
  %126 = load ptr, ptr %11, align 8, !tbaa !8
  store i32 8, ptr %126, align 4, !tbaa !11
  store i32 0, ptr %6, align 4
  store i32 1, ptr %13, align 4
  br label %252

127:                                              ; preds = %117
  br label %128

128:                                              ; preds = %127, %105
  call void @llvm.lifetime.start.p0(i64 4, ptr %18) #6
  %129 = load ptr, ptr %7, align 8, !tbaa !3
  %130 = load ptr, ptr %17, align 8, !tbaa !20
  %131 = getelementptr inbounds nuw i32, ptr %130, i64 0
  %132 = load i32, ptr %131, align 4, !tbaa !9
  %133 = call i32 @udata_readInt32_77(ptr noundef %129, i32 noundef %132)
  store i32 %133, ptr %18, align 4, !tbaa !9
  call void @llvm.lifetime.start.p0(i64 4, ptr %19) #6
  %134 = load i32, ptr %18, align 4, !tbaa !9
  %135 = sdiv i32 %134, 4
  store i32 %135, ptr %19, align 4, !tbaa !9
  %136 = load i32, ptr %19, align 4, !tbaa !9
  %137 = icmp slt i32 %136, 14
  br i1 %137, label %138, label %142

138:                                              ; preds = %128
  %139 = load ptr, ptr %7, align 8, !tbaa !3
  %140 = load i32, ptr %19, align 4, !tbaa !9
  call void (ptr, ptr, ...) @udata_printError_77(ptr noundef %139, ptr noundef @.str.20, i32 noundef %140)
  %141 = load ptr, ptr %11, align 8, !tbaa !8
  store i32 8, ptr %141, align 4, !tbaa !11
  store i32 0, ptr %6, align 4
  store i32 1, ptr %13, align 4
  br label %251

142:                                              ; preds = %128
  call void @llvm.lifetime.start.p0(i64 56, ptr %20) #6
  %143 = load i32, ptr %18, align 4, !tbaa !9
  %144 = getelementptr inbounds [14 x i32], ptr %20, i64 0, i64 0
  store i32 %143, ptr %144, align 16, !tbaa !9
  call void @llvm.lifetime.start.p0(i64 4, ptr %21) #6
  store i32 1, ptr %21, align 4, !tbaa !9
  br label %145

145:                                              ; preds = %160, %142
  %146 = load i32, ptr %21, align 4, !tbaa !9
  %147 = icmp sle i32 %146, 13
  br i1 %147, label %149, label %148

148:                                              ; preds = %145
  store i32 2, ptr %13, align 4
  call void @llvm.lifetime.end.p0(i64 4, ptr %21) #6
  br label %163

149:                                              ; preds = %145
  %150 = load ptr, ptr %7, align 8, !tbaa !3
  %151 = load ptr, ptr %17, align 8, !tbaa !20
  %152 = load i32, ptr %21, align 4, !tbaa !9
  %153 = sext i32 %152 to i64
  %154 = getelementptr inbounds i32, ptr %151, i64 %153
  %155 = load i32, ptr %154, align 4, !tbaa !9
  %156 = call i32 @udata_readInt32_77(ptr noundef %150, i32 noundef %155)
  %157 = load i32, ptr %21, align 4, !tbaa !9
  %158 = sext i32 %157 to i64
  %159 = getelementptr inbounds [14 x i32], ptr %20, i64 0, i64 %158
  store i32 %156, ptr %159, align 4, !tbaa !9
  br label %160

160:                                              ; preds = %149
  %161 = load i32, ptr %21, align 4, !tbaa !9
  %162 = add nsw i32 %161, 1
  store i32 %162, ptr %21, align 4, !tbaa !9
  br label %145, !llvm.loop !34

163:                                              ; preds = %148
  call void @llvm.lifetime.start.p0(i64 4, ptr %22) #6
  %164 = getelementptr inbounds nuw [14 x i32], ptr %20, i64 0, i64 13
  %165 = load i32, ptr %164, align 4, !tbaa !9
  store i32 %165, ptr %22, align 4, !tbaa !9
  %166 = load i32, ptr %9, align 4, !tbaa !9
  %167 = icmp sge i32 %166, 0
  br i1 %167, label %168, label %246

168:                                              ; preds = %163
  %169 = load i32, ptr %9, align 4, !tbaa !9
  %170 = load i32, ptr %22, align 4, !tbaa !9
  %171 = icmp slt i32 %169, %170
  br i1 %171, label %172, label %176

172:                                              ; preds = %168
  %173 = load ptr, ptr %7, align 8, !tbaa !3
  %174 = load i32, ptr %9, align 4, !tbaa !9
  call void (ptr, ptr, ...) @udata_printError_77(ptr noundef %173, ptr noundef @.str.21, i32 noundef %174)
  %175 = load ptr, ptr %11, align 8, !tbaa !8
  store i32 8, ptr %175, align 4, !tbaa !11
  store i32 0, ptr %6, align 4
  store i32 1, ptr %13, align 4
  br label %250

176:                                              ; preds = %168
  %177 = load ptr, ptr %15, align 8, !tbaa !27
  %178 = load ptr, ptr %16, align 8, !tbaa !27
  %179 = icmp ne ptr %177, %178
  br i1 %179, label %180, label %188

180:                                              ; preds = %176
  br label %181

181:                                              ; preds = %180
  %182 = load ptr, ptr %16, align 8, !tbaa !27
  %183 = load ptr, ptr %15, align 8, !tbaa !27
  %184 = load i32, ptr %22, align 4, !tbaa !9
  %185 = sext i32 %184 to i64
  call void @llvm.memcpy.p0.p0.i64(ptr align 1 %182, ptr align 1 %183, i64 %185, i1 false)
  br label %186

186:                                              ; preds = %181
  br label %187

187:                                              ; preds = %186
  br label %188

188:                                              ; preds = %187, %176
  call void @llvm.lifetime.start.p0(i64 4, ptr %23) #6
  store i32 0, ptr %23, align 4, !tbaa !9
  call void @llvm.lifetime.start.p0(i64 4, ptr %24) #6
  %189 = load i32, ptr %18, align 4, !tbaa !9
  store i32 %189, ptr %24, align 4, !tbaa !9
  %190 = load ptr, ptr %7, align 8, !tbaa !3
  %191 = getelementptr inbounds nuw %struct.UDataSwapper, ptr %190, i32 0, i32 10
  %192 = load ptr, ptr %191, align 8, !tbaa !24
  %193 = load ptr, ptr %7, align 8, !tbaa !3
  %194 = load ptr, ptr %15, align 8, !tbaa !27
  %195 = load i32, ptr %24, align 4, !tbaa !9
  %196 = load i32, ptr %23, align 4, !tbaa !9
  %197 = sub nsw i32 %195, %196
  %198 = load ptr, ptr %16, align 8, !tbaa !27
  %199 = load ptr, ptr %11, align 8, !tbaa !8
  %200 = call noundef i32 %192(ptr noundef %193, ptr noundef %194, i32 noundef %197, ptr noundef %198, ptr noundef %199)
  %201 = load i32, ptr %24, align 4, !tbaa !9
  store i32 %201, ptr %23, align 4, !tbaa !9
  %202 = getelementptr inbounds [14 x i32], ptr %20, i64 0, i64 1
  %203 = load i32, ptr %202, align 4, !tbaa !9
  store i32 %203, ptr %24, align 4, !tbaa !9
  call void @llvm.lifetime.start.p0(i64 4, ptr %25) #6
  %204 = load i32, ptr %24, align 4, !tbaa !9
  %205 = load i32, ptr %23, align 4, !tbaa !9
  %206 = sub nsw i32 %204, %205
  store i32 %206, ptr %25, align 4, !tbaa !9
  %207 = load i32, ptr %25, align 4, !tbaa !9
  %208 = icmp sge i32 %207, 16
  br i1 %208, label %209, label %222

209:                                              ; preds = %188
  %210 = load ptr, ptr %7, align 8, !tbaa !3
  %211 = load ptr, ptr %15, align 8, !tbaa !27
  %212 = load i32, ptr %23, align 4, !tbaa !9
  %213 = sext i32 %212 to i64
  %214 = getelementptr inbounds i8, ptr %211, i64 %213
  %215 = load i32, ptr %25, align 4, !tbaa !9
  %216 = load ptr, ptr %16, align 8, !tbaa !27
  %217 = load i32, ptr %23, align 4, !tbaa !9
  %218 = sext i32 %217 to i64
  %219 = getelementptr inbounds i8, ptr %216, i64 %218
  %220 = load ptr, ptr %11, align 8, !tbaa !8
  %221 = call i32 @utrie_swapAnyVersion_77(ptr noundef %210, ptr noundef %214, i32 noundef %215, ptr noundef %219, ptr noundef %220)
  br label %222

222:                                              ; preds = %209, %188
  %223 = load i32, ptr %24, align 4, !tbaa !9
  store i32 %223, ptr %23, align 4, !tbaa !9
  %224 = getelementptr inbounds nuw [14 x i32], ptr %20, i64 0, i64 4
  %225 = load i32, ptr %224, align 16, !tbaa !9
  store i32 %225, ptr %23, align 4, !tbaa !9
  %226 = getelementptr inbounds [14 x i32], ptr %20, i64 0, i64 10
  %227 = load i32, ptr %226, align 8, !tbaa !9
  store i32 %227, ptr %24, align 4, !tbaa !9
  %228 = load ptr, ptr %7, align 8, !tbaa !3
  %229 = getelementptr inbounds nuw %struct.UDataSwapper, ptr %228, i32 0, i32 9
  %230 = load ptr, ptr %229, align 8, !tbaa !26
  %231 = load ptr, ptr %7, align 8, !tbaa !3
  %232 = load ptr, ptr %15, align 8, !tbaa !27
  %233 = load i32, ptr %23, align 4, !tbaa !9
  %234 = sext i32 %233 to i64
  %235 = getelementptr inbounds i8, ptr %232, i64 %234
  %236 = load i32, ptr %24, align 4, !tbaa !9
  %237 = load i32, ptr %23, align 4, !tbaa !9
  %238 = sub nsw i32 %236, %237
  %239 = load ptr, ptr %16, align 8, !tbaa !27
  %240 = load i32, ptr %23, align 4, !tbaa !9
  %241 = sext i32 %240 to i64
  %242 = getelementptr inbounds i8, ptr %239, i64 %241
  %243 = load ptr, ptr %11, align 8, !tbaa !8
  %244 = call noundef i32 %230(ptr noundef %231, ptr noundef %235, i32 noundef %238, ptr noundef %242, ptr noundef %243)
  %245 = load i32, ptr %24, align 4, !tbaa !9
  store i32 %245, ptr %23, align 4, !tbaa !9
  call void @llvm.lifetime.end.p0(i64 4, ptr %25) #6
  call void @llvm.lifetime.end.p0(i64 4, ptr %24) #6
  call void @llvm.lifetime.end.p0(i64 4, ptr %23) #6
  br label %246

246:                                              ; preds = %222, %163
  %247 = load i32, ptr %12, align 4, !tbaa !9
  %248 = load i32, ptr %22, align 4, !tbaa !9
  %249 = add nsw i32 %247, %248
  store i32 %249, ptr %6, align 4
  store i32 1, ptr %13, align 4
  br label %250

250:                                              ; preds = %246, %172
  call void @llvm.lifetime.end.p0(i64 4, ptr %22) #6
  call void @llvm.lifetime.end.p0(i64 56, ptr %20) #6
  br label %251

251:                                              ; preds = %250, %138
  call void @llvm.lifetime.end.p0(i64 4, ptr %19) #6
  call void @llvm.lifetime.end.p0(i64 4, ptr %18) #6
  br label %252

252:                                              ; preds = %251, %123
  call void @llvm.lifetime.end.p0(i64 8, ptr %17) #6
  call void @llvm.lifetime.end.p0(i64 8, ptr %16) #6
  call void @llvm.lifetime.end.p0(i64 8, ptr %15) #6
  br label %253

253:                                              ; preds = %252, %77
  call void @llvm.lifetime.end.p0(i64 8, ptr %14) #6
  br label %254

254:                                              ; preds = %253, %39
  call void @llvm.lifetime.end.p0(i64 4, ptr %12) #6
  %255 = load i32, ptr %6, align 4
  ret i32 %255
}