; Function Attrs: mustprogress uwtable
define internal noundef i32 @_ZL11uemoji_swapPK12UDataSwapperPKviPvP10UErrorCode(ptr noundef %0, ptr noundef %1, i32 noundef %2, ptr noundef %3, ptr noundef %4) #0 {
  %6 = alloca [14 x i32], align 16
  %7 = tail call i32 @udata_swapDataHeader_77(ptr noundef %0, ptr noundef %1, i32 noundef %2, ptr noundef %3, ptr noundef %4)
  %8 = icmp eq ptr %4, null
  br i1 %8, label %102, label %9

9:                                                ; preds = %5
  %10 = load i32, ptr %4, align 4, !tbaa !3
  %11 = icmp slt i32 %10, 1
  br i1 %11, label %12, label %102

12:                                               ; preds = %9
  %13 = getelementptr inbounds nuw i8, ptr %1, i64 12
  %14 = load i8, ptr %13, align 2, !tbaa !7
  %15 = icmp eq i8 %14, 69
  %16 = getelementptr inbounds nuw i8, ptr %1, i64 13
  %17 = load i8, ptr %16, align 1, !tbaa !7
  %18 = icmp eq i8 %17, 109
  %or.cond = select i1 %15, i1 %18, i1 false
  br i1 %or.cond, label %19, label %._crit_edge

19:                                               ; preds = %12
  %20 = getelementptr inbounds nuw i8, ptr %1, i64 14
  %21 = load i8, ptr %20, align 2, !tbaa !7
  %22 = icmp eq i8 %21, 111
  br i1 %22, label %23, label %._crit_edge

23:                                               ; preds = %19
  %24 = getelementptr inbounds nuw i8, ptr %1, i64 15
  %25 = load i8, ptr %24, align 1, !tbaa !7
  %26 = icmp eq i8 %25, 106
  br i1 %26, label %27, label %._crit_edge

27:                                               ; preds = %23
  %28 = getelementptr inbounds nuw i8, ptr %1, i64 16
  %29 = load i8, ptr %28, align 2, !tbaa !7
  %30 = icmp eq i8 %29, 1
  br i1 %30, label %43, label %._crit_edge

._crit_edge:                                      ; preds = %12, %27, %23, %19
  %31 = phi i8 [ 109, %27 ], [ 109, %23 ], [ 109, %19 ], [ %17, %12 ]
  %32 = zext i8 %14 to i32
  %33 = zext i8 %31 to i32
  %34 = getelementptr inbounds nuw i8, ptr %1, i64 14
  %35 = load i8, ptr %34, align 2, !tbaa !7
  %36 = zext i8 %35 to i32
  %37 = getelementptr inbounds nuw i8, ptr %1, i64 15
  %38 = load i8, ptr %37, align 1, !tbaa !7
  %39 = zext i8 %38 to i32
  %40 = getelementptr inbounds nuw i8, ptr %1, i64 16
  %41 = load i8, ptr %40, align 2, !tbaa !7
  %42 = zext i8 %41 to i32
  tail call void (ptr, ptr, ...) @udata_printError_77(ptr noundef %0, ptr noundef nonnull @.str.18, i32 noundef %32, i32 noundef %33, i32 noundef %36, i32 noundef %39, i32 noundef %42)
  store i32 16, ptr %4, align 4, !tbaa !3
  br label %102

43:                                               ; preds = %27
  %44 = sext i32 %7 to i64
  %45 = getelementptr inbounds i8, ptr %1, i64 %44
  %46 = getelementptr inbounds i8, ptr %3, i64 %44
  %47 = icmp sgt i32 %2, -1
  br i1 %47, label %48, label %52

48:                                               ; preds = %43
  %49 = sub nsw i32 %2, %7
  %50 = icmp slt i32 %49, 56
  br i1 %50, label %51, label %52

51:                                               ; preds = %48
  tail call void (ptr, ptr, ...) @udata_printError_77(ptr noundef %0, ptr noundef nonnull @.str.19, i32 noundef %49)
  store i32 8, ptr %4, align 4, !tbaa !3
  br label %102

52:                                               ; preds = %48, %43
  %.089 = phi i32 [ %49, %48 ], [ %2, %43 ]
  %53 = load i32, ptr %45, align 4, !tbaa !15
  %54 = tail call i32 @udata_readInt32_77(ptr noundef %0, i32 noundef %53)
  %55 = icmp slt i32 %54, 56
  br i1 %55, label %56, label %58

56:                                               ; preds = %52
  %57 = sdiv i32 %54, 4
  tail call void (ptr, ptr, ...) @udata_printError_77(ptr noundef %0, ptr noundef nonnull @.str.20, i32 noundef %57)
  store i32 8, ptr %4, align 4, !tbaa !3
  br label %102

58:                                               ; preds = %52
  call void @llvm.lifetime.start.p0(i64 56, ptr nonnull %6) #5
  br label %63

59:                                               ; preds = %63
  %60 = getelementptr inbounds nuw i8, ptr %6, i64 52
  %61 = load i32, ptr %60, align 4, !tbaa !15
  %62 = icmp sgt i32 %.089, -1
  br i1 %62, label %68, label %99

63:                                               ; preds = %58, %63
  %indvars.iv = phi i64 [ 1, %58 ], [ %indvars.iv.next, %63 ]
  %64 = getelementptr inbounds nuw i32, ptr %45, i64 %indvars.iv
  %65 = load i32, ptr %64, align 4, !tbaa !15
  %66 = tail call i32 @udata_readInt32_77(ptr noundef %0, i32 noundef %65)
  %67 = getelementptr inbounds nuw [14 x i32], ptr %6, i64 0, i64 %indvars.iv
  store i32 %66, ptr %67, align 4, !tbaa !15
  %indvars.iv.next = add nuw nsw i64 %indvars.iv, 1
  %exitcond.not = icmp eq i64 %indvars.iv.next, 14
  br i1 %exitcond.not, label %59, label %63, !llvm.loop !27

68:                                               ; preds = %59
  %69 = icmp slt i32 %.089, %61
  br i1 %69, label %70, label %71

70:                                               ; preds = %68
  tail call void (ptr, ptr, ...) @udata_printError_77(ptr noundef %0, ptr noundef nonnull @.str.21, i32 noundef %.089)
  store i32 8, ptr %4, align 4, !tbaa !3
  br label %101

71:                                               ; preds = %68
  %.not101 = icmp eq ptr %1, %3
  br i1 %.not101, label %74, label %72

72:                                               ; preds = %71
  %73 = sext i32 %61 to i64
  tail call void @llvm.memcpy.p0.p0.i64(ptr align 1 %46, ptr nonnull align 1 %45, i64 %73, i1 false)
  br label %74

74:                                               ; preds = %72, %71
  %75 = getelementptr inbounds nuw i8, ptr %0, i64 56
  %76 = load ptr, ptr %75, align 8, !tbaa !19
  %77 = tail call noundef i32 %76(ptr noundef %0, ptr noundef nonnull %45, i32 noundef %54, ptr noundef %46, ptr noundef nonnull %4)
  %78 = getelementptr inbounds nuw i8, ptr %6, i64 4
  %79 = load i32, ptr %78, align 4, !tbaa !15
  %80 = sub nsw i32 %79, %54
  %81 = icmp sgt i32 %80, 15
  br i1 %81, label %82, label %87

82:                                               ; preds = %74
  %83 = zext nneg i32 %54 to i64
  %84 = getelementptr inbounds nuw i8, ptr %45, i64 %83
  %85 = getelementptr inbounds nuw i8, ptr %46, i64 %83
  %86 = tail call i32 @utrie_swapAnyVersion_77(ptr noundef nonnull %0, ptr noundef nonnull %84, i32 noundef %80, ptr noundef nonnull %85, ptr noundef nonnull %4)
  br label %87

87:                                               ; preds = %82, %74
  %88 = getelementptr inbounds nuw i8, ptr %6, i64 16
  %89 = load i32, ptr %88, align 16, !tbaa !15
  %90 = getelementptr inbounds nuw i8, ptr %6, i64 40
  %91 = load i32, ptr %90, align 8, !tbaa !15
  %92 = getelementptr inbounds nuw i8, ptr %0, i64 48
  %93 = load ptr, ptr %92, align 8, !tbaa !21
  %94 = sext i32 %89 to i64
  %95 = getelementptr inbounds i8, ptr %45, i64 %94
  %96 = sub nsw i32 %91, %89
  %97 = getelementptr inbounds i8, ptr %46, i64 %94
  %98 = tail call noundef i32 %93(ptr noundef nonnull %0, ptr noundef nonnull %95, i32 noundef %96, ptr noundef %97, ptr noundef nonnull %4)
  br label %99

99:                                               ; preds = %87, %59
  %100 = add nsw i32 %61, %7
  br label %101

101:                                              ; preds = %99, %70
  %.4 = phi i32 [ 0, %70 ], [ %100, %99 ]
  call void @llvm.lifetime.end.p0(i64 56, ptr nonnull %6) #5
  br label %102

102:                                              ; preds = %._crit_edge, %56, %101, %51, %5, %9
  %.0 = phi i32 [ 0, %9 ], [ 0, %5 ], [ 0, %._crit_edge ], [ 0, %51 ], [ 0, %56 ], [ %.4, %101 ]
  ret i32 %.0
}